; Function Attrs: nounwind uwtable
define dso_local void @dictSetUnsignedIntegerVal(ptr noundef %0, i64 noundef %1) local_unnamed_addr #3 {
  %3 = ptrtoint ptr %0 to i64
  %4 = and i64 %3, 7
  %.not = icmp eq i64 %4, 0
  br i1 %.not, label %6, label %5, !prof !25

5:                                                ; preds = %2
  tail call void @_serverAssert(ptr noundef nonnull @.str.9, ptr noundef nonnull @.str.1, i32 noundef 893) #25
  tail call void @abort() #27
  unreachable

6:                                                ; preds = %2
  %7 = getelementptr inbounds nuw i8, ptr %0, i64 8
  store i64 %1, ptr %7, align 8, !tbaa !13
  ret void
}